target datalayout = "e-m:e-p270:32:32-p271:32:32-p272:64:64-i64:64-i128:128-f80:128-n8:16:32:64-S128"
target triple = "x86_64-pc-linux-gnu"

@_ZN13ZNMethodTable5_sizeE = hidden global i64 0, align 8
@_ZN13ZNMethodTable12_nregisteredE = hidden global i64 0, align 8
@_ZN13ZNMethodTable14_nunregisteredE = hidden global i64 0, align 8

; Function Attrs: mustprogress nounwind uwtable
define hidden void @_ZN13ZNMethodTable17rebuild_if_neededEv() #1 align 2 {
  %1 = alloca i64, align 8
  %2 = alloca i64, align 8
  %3 = alloca i64, align 8
  %4 = alloca i64, align 8
  store i64 1024, ptr %1, align 8
  %5 = load i64, ptr @_ZN13ZNMethodTable5_sizeE, align 8
  %6 = uitofp i64 %5 to double
  %7 = fmul double %6, 3.000000e-01
  %8 = fptoui double %7 to i64
  store i64 %8, ptr %2, align 8
  %9 = load i64, ptr @_ZN13ZNMethodTable5_sizeE, align 8
  %10 = uitofp i64 %9 to double
  %11 = fmul double %10, 6.500000e-01
  %12 = fptoui double %11 to i64
  store i64 %12, ptr %3, align 8
  %13 = load i64, ptr @_ZN13ZNMethodTable5_sizeE, align 8
  %14 = uitofp i64 %13 to double
  %15 = fmul double %14, 0x3FE6666666666666
  %16 = fptoui double %15 to i64
  store i64 %16, ptr %4, align 8
  %17 = load i64, ptr @_ZN13ZNMethodTable5_sizeE, align 8
  %18 = icmp eq i64 %17, 0
  br i1 %18, label %19, label %20

19:                                               ; preds = %0
  call void @_ZN13ZNMethodTable7rebuildEm(i64 noundef 1024)
  br label %48

20:                                               ; preds = %0
  %21 = load i64, ptr @_ZN13ZNMethodTable12_nregisteredE, align 8
  %22 = load i64, ptr %2, align 8
  %23 = icmp ult i64 %21, %22
  br i1 %23, label %24, label %30

24:                                               ; preds = %20
  %25 = load i64, ptr @_ZN13ZNMethodTable5_sizeE, align 8
  %26 = icmp ugt i64 %25, 1024
  br i1 %26, label %27, label %30

27:                                               ; preds = %24
  %28 = load i64, ptr @_ZN13ZNMethodTable5_sizeE, align 8
  %29 = udiv i64 %28, 2
  call void @_ZN13ZNMethodTable7rebuildEm(i64 noundef %29)
  br label %47

30:                                               ; preds = %24, %20
  %31 = load i64, ptr @_ZN13ZNMethodTable12_nregisteredE, align 8
  %32 = load i64, ptr @_ZN13ZNMethodTable14_nunregisteredE, align 8
  %33 = add i64 %31, %32
  %34 = load i64, ptr %4, align 8
  %35 = icmp ugt i64 %33, %34
  br i1 %35, label %36, label %46

36:                                               ; preds = %30
  %37 = load i64, ptr @_ZN13ZNMethodTable12_nregisteredE, align 8
  %38 = load i64, ptr %3, align 8
  %39 = icmp ult i64 %37, %38
  br i1 %39, label %40, label %42

40:                                               ; preds = %36
  %41 = load i64, ptr @_ZN13ZNMethodTable5_sizeE, align 8
  call void @_ZN13ZNMethodTable7rebuildEm(i64 noundef %41)
  br label %45

42:                                               ; preds = %36
  %43 = load i64, ptr @_ZN13ZNMethodTable5_sizeE, align 8
  %44 = mul i64 %43, 2
  call void @_ZN13ZNMethodTable7rebuildEm(i64 noundef %44)
  br label %45

45:                                               ; preds = %42, %40
  br label %46

46:                                               ; preds = %45, %30
  br label %47

47:                                               ; preds = %46, %27
  br label %48

48:                                               ; preds = %47, %19
  ret void
}