; Function Attrs: mustprogress nounwind uwtable
define hidden void @_ZN13ZNMethodTable17rebuild_if_neededEv() local_unnamed_addr #1 align 2 {
  %1 = load i64, ptr @_ZN13ZNMethodTable5_sizeE, align 8
  %2 = uitofp i64 %1 to double
  %3 = fmul double %2, 6.500000e-01
  %4 = fptoui double %3 to i64
  %5 = fmul double %2, 0x3FE6666666666666
  %6 = fptoui double %5 to i64
  %7 = icmp eq i64 %1, 0
  br i1 %7, label %.sink.split, label %8

8:                                                ; preds = %0
  %9 = fmul double %2, 3.000000e-01
  %10 = fptoui double %9 to i64
  %11 = load i64, ptr @_ZN13ZNMethodTable12_nregisteredE, align 8
  %12 = icmp ult i64 %11, %10
  %13 = icmp ugt i64 %1, 1024
  %or.cond = and i1 %13, %12
  br i1 %or.cond, label %14, label %16

14:                                               ; preds = %8
  %15 = lshr i64 %1, 1
  br label %.sink.split

16:                                               ; preds = %8
  %17 = load i64, ptr @_ZN13ZNMethodTable14_nunregisteredE, align 8
  %18 = add i64 %17, %11
  %19 = icmp ugt i64 %18, %6
  br i1 %19, label %20, label %23

20:                                               ; preds = %16
  %21 = icmp uge i64 %11, %4
  %22 = zext i1 %21 to i64
  %spec.select = shl i64 %1, %22
  br label %.sink.split

.sink.split:                                      ; preds = %20, %0, %14
  %.sink = phi i64 [ %15, %14 ], [ 1024, %0 ], [ %spec.select, %20 ]
  tail call void @_ZN13ZNMethodTable7rebuildEm(i64 noundef %.sink)
  br label %23

23:                                               ; preds = %.sink.split, %16
  ret void
}